target datalayout = "e-m:e-p270:32:32-p271:32:32-p272:64:64-i64:64-i128:128-f80:128-n8:16:32:64-S128"
target triple = "x86_64-pc-linux-gnu"

%struct.WebPWorker = type { ptr, i32, ptr, ptr, ptr, i32 }
%struct.WebPWorkerImpl = type { %union.pthread_mutex_t, %union.pthread_cond_t, i64 }
%union.pthread_mutex_t = type { %struct.__pthread_mutex_s }
%struct.__pthread_mutex_s = type { i32, i32, i32, i32, i32, i16, i16, %struct.__pthread_internal_list }
%struct.__pthread_internal_list = type { ptr, ptr }
%union.pthread_cond_t = type { %struct.__pthread_cond_s }
%struct.__pthread_cond_s = type { %union.__atomic_wide_counter, %union.__atomic_wide_counter, [2 x i32], [2 x i32], i32, i32, [2 x i32] }
%union.__atomic_wide_counter = type { i64 }

; Function Attrs: nounwind uwtable
define internal void @ChangeState(ptr noundef %0, i32 noundef %1) #0 {
  %3 = alloca ptr, align 8
  %4 = alloca i32, align 4
  %5 = alloca ptr, align 8
  %6 = alloca i32, align 4
  store ptr %0, ptr %3, align 8, !tbaa !3
  store i32 %1, ptr %4, align 4, !tbaa !18
  call void @llvm.lifetime.start.p0(i64 8, ptr %5) #6
  %7 = load ptr, ptr %3, align 8, !tbaa !3
  %8 = getelementptr inbounds nuw %struct.WebPWorker, ptr %7, i32 0, i32 0
  %9 = load ptr, ptr %8, align 8, !tbaa !20
  store ptr %9, ptr %5, align 8, !tbaa !3
  %10 = load ptr, ptr %5, align 8, !tbaa !3
  %11 = icmp eq ptr %10, null
  br i1 %11, label %12, label %13

12:                                               ; preds = %2
  store i32 1, ptr %6, align 4
  br label %51

13:                                               ; preds = %2
  %14 = load ptr, ptr %5, align 8, !tbaa !3
  %15 = getelementptr inbounds nuw %struct.WebPWorkerImpl, ptr %14, i32 0, i32 0
  %16 = call i32 @pthread_mutex_lock(ptr noundef %15) #6
  %17 = load ptr, ptr %3, align 8, !tbaa !3
  %18 = getelementptr inbounds nuw %struct.WebPWorker, ptr %17, i32 0, i32 1
  %19 = load i32, ptr %18, align 8, !tbaa !15
  %20 = icmp uge i32 %19, 1
  br i1 %20, label %21, label %47

21:                                               ; preds = %13
  br label %22

22:                                               ; preds = %27, %21
  %23 = load ptr, ptr %3, align 8, !tbaa !3
  %24 = getelementptr inbounds nuw %struct.WebPWorker, ptr %23, i32 0, i32 1
  %25 = load i32, ptr %24, align 8, !tbaa !15
  %26 = icmp ne i32 %25, 1
  br i1 %26, label %27, label %33

27:                                               ; preds = %22
  %28 = load ptr, ptr %5, align 8, !tbaa !3
  %29 = getelementptr inbounds nuw %struct.WebPWorkerImpl, ptr %28, i32 0, i32 1
  %30 = load ptr, ptr %5, align 8, !tbaa !3
  %31 = getelementptr inbounds nuw %struct.WebPWorkerImpl, ptr %30, i32 0, i32 0
  %32 = call i32 @pthread_cond_wait(ptr noundef %29, ptr noundef %31)
  br label %22, !llvm.loop !30

33:                                               ; preds = %22
  %34 = load i32, ptr %4, align 4, !tbaa !18
  %35 = icmp ne i32 %34, 1
  br i1 %35, label %36, label %46

36:                                               ; preds = %33
  %37 = load i32, ptr %4, align 4, !tbaa !18
  %38 = load ptr, ptr %3, align 8, !tbaa !3
  %39 = getelementptr inbounds nuw %struct.WebPWorker, ptr %38, i32 0, i32 1
  store i32 %37, ptr %39, align 8, !tbaa !15
  %40 = load ptr, ptr %5, align 8, !tbaa !3
  %41 = getelementptr inbounds nuw %struct.WebPWorkerImpl, ptr %40, i32 0, i32 0
  %42 = call i32 @pthread_mutex_unlock(ptr noundef %41) #6
  %43 = load ptr, ptr %5, align 8, !tbaa !3
  %44 = getelementptr inbounds nuw %struct.WebPWorkerImpl, ptr %43, i32 0, i32 1
  %45 = call i32 @pthread_cond_signal(ptr noundef %44) #6
  store i32 1, ptr %6, align 4
  br label %51

46:                                               ; preds = %33
  br label %47

47:                                               ; preds = %46, %13
  %48 = load ptr, ptr %5, align 8, !tbaa !3
  %49 = getelementptr inbounds nuw %struct.WebPWorkerImpl, ptr %48, i32 0, i32 0
  %50 = call i32 @pthread_mutex_unlock(ptr noundef %49) #6
  store i32 0, ptr %6, align 4
  br label %51

51:                                               ; preds = %47, %36, %12
  call void @llvm.lifetime.end.p0(i64 8, ptr %5) #6
  %52 = load i32, ptr %6, align 4
  switch i32 %52, label %54 [
    i32 0, label %53
    i32 1, label %53
  ]

53:                                               ; preds = %51, %51
  ret void

54:                                               ; preds = %51
  unreachable
}

; Function Attrs: nounwind uwtable
define internal i32 @Sync(ptr noundef %0) #0 {
  %2 = alloca ptr, align 8
  store ptr %0, ptr %2, align 8, !tbaa !3
  %3 = load ptr, ptr %2, align 8, !tbaa !3
  call void @ChangeState(ptr noundef %3, i32 noundef 1)
  %4 = load ptr, ptr %2, align 8, !tbaa !3
  %5 = getelementptr inbounds nuw %struct.WebPWorker, ptr %4, i32 0, i32 5
  %6 = load i32, ptr %5, align 8, !tbaa !19
  %7 = icmp ne i32 %6, 0
  %8 = xor i1 %7, true
  %9 = zext i1 %8 to i32
  ret i32 %9
}

; Function Attrs: nounwind uwtable
define internal i32 @Reset(ptr noundef %0) #0 {
  %2 = alloca i32, align 4
  %3 = alloca ptr, align 8
  %4 = alloca i32, align 4
  %5 = alloca ptr, align 8
  %6 = alloca i32, align 4
  store ptr %0, ptr %3, align 8, !tbaa !3
  call void @llvm.lifetime.start.p0(i64 4, ptr %4) #6
  store i32 1, ptr %4, align 4, !tbaa !18
  %7 = load ptr, ptr %3, align 8, !tbaa !3
  %8 = getelementptr inbounds nuw %struct.WebPWorker, ptr %7, i32 0, i32 5
  store i32 0, ptr %8, align 8, !tbaa !19
  %9 = load ptr, ptr %3, align 8, !tbaa !3
  %10 = getelementptr inbounds nuw %struct.WebPWorker, ptr %9, i32 0, i32 1
  %11 = load i32, ptr %10, align 8, !tbaa !15
  %12 = icmp ult i32 %11, 1
  br i1 %12, label %13, label %75

13:                                               ; preds = %1
  call void @llvm.lifetime.start.p0(i64 8, ptr %5) #6
  %14 = call ptr @WebPSafeCalloc(i64 noundef 1, i64 noundef 96)
  store ptr %14, ptr %5, align 8, !tbaa !3
  %15 = load ptr, ptr %5, align 8, !tbaa !3
  %16 = load ptr, ptr %3, align 8, !tbaa !3
  %17 = getelementptr inbounds nuw %struct.WebPWorker, ptr %16, i32 0, i32 0
  store ptr %15, ptr %17, align 8, !tbaa !20
  %18 = load ptr, ptr %3, align 8, !tbaa !3
  %19 = getelementptr inbounds nuw %struct.WebPWorker, ptr %18, i32 0, i32 0
  %20 = load ptr, ptr %19, align 8, !tbaa !20
  %21 = icmp eq ptr %20, null
  br i1 %21, label %22, label %23

22:                                               ; preds = %13
  store i32 0, ptr %2, align 4
  store i32 1, ptr %6, align 4
  br label %72

23:                                               ; preds = %13
  %24 = load ptr, ptr %5, align 8, !tbaa !3
  %25 = getelementptr inbounds nuw %struct.WebPWorkerImpl, ptr %24, i32 0, i32 0
  %26 = call i32 @pthread_mutex_init(ptr noundef %25, ptr noundef null) #6
  %27 = icmp ne i32 %26, 0
  br i1 %27, label %28, label %29

28:                                               ; preds = %23
  br label %67

29:                                               ; preds = %23
  %30 = load ptr, ptr %5, align 8, !tbaa !3
  %31 = getelementptr inbounds nuw %struct.WebPWorkerImpl, ptr %30, i32 0, i32 1
  %32 = call i32 @pthread_cond_init(ptr noundef %31, ptr noundef null) #6
  %33 = icmp ne i32 %32, 0
  br i1 %33, label %34, label %38

34:                                               ; preds = %29
  %35 = load ptr, ptr %5, align 8, !tbaa !3
  %36 = getelementptr inbounds nuw %struct.WebPWorkerImpl, ptr %35, i32 0, i32 0
  %37 = call i32 @pthread_mutex_destroy(ptr noundef %36) #6
  br label %67

38:                                               ; preds = %29
  %39 = load ptr, ptr %5, align 8, !tbaa !3
  %40 = getelementptr inbounds nuw %struct.WebPWorkerImpl, ptr %39, i32 0, i32 0
  %41 = call i32 @pthread_mutex_lock(ptr noundef %40) #6
  %42 = load ptr, ptr %5, align 8, !tbaa !3
  %43 = getelementptr inbounds nuw %struct.WebPWorkerImpl, ptr %42, i32 0, i32 2
  %44 = load ptr, ptr %3, align 8, !tbaa !3
  %45 = call i32 @pthread_create(ptr noundef %43, ptr noundef null, ptr noundef @ThreadLoop, ptr noundef %44) #6
  %46 = icmp ne i32 %45, 0
  %47 = xor i1 %46, true
  %48 = zext i1 %47 to i32
  store i32 %48, ptr %4, align 4, !tbaa !18
  %49 = load i32, ptr %4, align 4, !tbaa !18
  %50 = icmp ne i32 %49, 0
  br i1 %50, label %51, label %54

51:                                               ; preds = %38
  %52 = load ptr, ptr %3, align 8, !tbaa !3
  %53 = getelementptr inbounds nuw %struct.WebPWorker, ptr %52, i32 0, i32 1
  store i32 1, ptr %53, align 8, !tbaa !15
  br label %54

54:                                               ; preds = %51, %38
  %55 = load ptr, ptr %5, align 8, !tbaa !3
  %56 = getelementptr inbounds nuw %struct.WebPWorkerImpl, ptr %55, i32 0, i32 0
  %57 = call i32 @pthread_mutex_unlock(ptr noundef %56) #6
  %58 = load i32, ptr %4, align 4, !tbaa !18
  %59 = icmp ne i32 %58, 0
  br i1 %59, label %71, label %60

60:                                               ; preds = %54
  %61 = load ptr, ptr %5, align 8, !tbaa !3
  %62 = getelementptr inbounds nuw %struct.WebPWorkerImpl, ptr %61, i32 0, i32 0
  %63 = call i32 @pthread_mutex_destroy(ptr noundef %62) #6
  %64 = load ptr, ptr %5, align 8, !tbaa !3
  %65 = getelementptr inbounds nuw %struct.WebPWorkerImpl, ptr %64, i32 0, i32 1
  %66 = call i32 @pthread_cond_destroy(ptr noundef %65) #6
  br label %67

67:                                               ; preds = %60, %34, %28
  %68 = load ptr, ptr %5, align 8, !tbaa !3
  call void @WebPSafeFree(ptr noundef %68)
  %69 = load ptr, ptr %3, align 8, !tbaa !3
  %70 = getelementptr inbounds nuw %struct.WebPWorker, ptr %69, i32 0, i32 0
  store ptr null, ptr %70, align 8, !tbaa !20
  store i32 0, ptr %2, align 4
  store i32 1, ptr %6, align 4
  br label %72

71:                                               ; preds = %54
  store i32 0, ptr %6, align 4
  br label %72

72:                                               ; preds = %71, %67, %22
  call void @llvm.lifetime.end.p0(i64 8, ptr %5) #6
  %73 = load i32, ptr %6, align 4
  switch i32 %73, label %86 [
    i32 0, label %74
  ]

74:                                               ; preds = %72
  br label %84

75:                                               ; preds = %1
  %76 = load ptr, ptr %3, align 8, !tbaa !3
  %77 = getelementptr inbounds nuw %struct.WebPWorker, ptr %76, i32 0, i32 1
  %78 = load i32, ptr %77, align 8, !tbaa !15
  %79 = icmp ugt i32 %78, 1
  br i1 %79, label %80, label %83

80:                                               ; preds = %75
  %81 = load ptr, ptr %3, align 8, !tbaa !3
  %82 = call i32 @Sync(ptr noundef %81)
  store i32 %82, ptr %4, align 4, !tbaa !18
  br label %83

83:                                               ; preds = %80, %75
  br label %84

84:                                               ; preds = %83, %74
  %85 = load i32, ptr %4, align 4, !tbaa !18
  store i32 %85, ptr %2, align 4
  store i32 1, ptr %6, align 4
  br label %86

86:                                               ; preds = %84, %72
  call void @llvm.lifetime.end.p0(i64 4, ptr %4) #6
  %87 = load i32, ptr %2, align 4
  ret i32 %87
}